(dp0
Vproject_steps
p1
(lp2
VJSIntro
p3
aVDateTime
p4
aVStrings
p5
aVArrays
p6
aVObjects
p7
aVSerilization
p8
asVproject_name
p9
VJS_Intro
p10
sVproject_directory
p11
VE:\u005cMyProjects\u005cJSIntro
p12
sVlanguage
p13
Vjavascript
p14
sVproject_page
p15
Vhttp://mission-rnd.github.io/javascript-basics.htm
p16
sVproject_status
p17
I4
sVproject_gitrepo
p18
Vhttps://github.com/mission-rnd/mrnd-javascript
p19
sVproject_user
p20
Vsujana_saragadam
p21
sVproject_validator
p22
Vjasmine-node --junitreport --captureExceptions spec/tests/
p23
s.